target datalayout = "e-m:e-p270:32:32-p271:32:32-p272:64:64-i64:64-i128:128-f80:128-n8:16:32:64-S128"
target triple = "x86_64-pc-linux-gnu"

%struct.pm_lex_mode = type { i32, %union.anon, ptr }
%union.anon = type { %struct.anon.3 }
%struct.anon.3 = type { %struct.pm_heredoc_lex_mode_t, ptr, ptr, i8 }
%struct.pm_heredoc_lex_mode_t = type { ptr, i64, i32, i32 }
%struct.pm_parser = type { i32, i32, i32, i32, i32, i32, i32, %struct.anon, ptr, ptr, %struct.pm_token_t, %struct.pm_token_t, ptr, ptr, %struct.pm_list_t, %struct.pm_list_t, %struct.pm_location_t, %struct.pm_list_t, %struct.pm_list_t, ptr, ptr, ptr, ptr, ptr, ptr, ptr, %struct.pm_string_t, %struct.pm_constant_pool_t, %struct.pm_newline_list_t, i16, %struct.pm_string_t, i32, ptr, ptr, i32, i8, i8, i8, i8, i8, i8, i8, i8, i8, i8, i8, i8, i8 }
%struct.anon = type { ptr, [4 x %struct.pm_lex_mode], i64 }
%struct.pm_token_t = type { i32, ptr, ptr }
%struct.pm_location_t = type { ptr, ptr }
%struct.pm_list_t = type { i64, ptr, ptr }
%struct.pm_constant_pool_t = type { ptr, ptr, i32, i32 }
%struct.pm_newline_list_t = type { ptr, i64, i64, ptr }
%struct.pm_string_t = type { ptr, i64, i32 }
%struct.pm_node = type { i16, i16, i32, %struct.pm_location_t }
%struct.pm_symbol_node = type { %struct.pm_node, %struct.pm_location_t, %struct.pm_location_t, %struct.pm_location_t, %struct.pm_string_t }

@stderr = external global ptr, align 8
@.str.94 = private unnamed_addr constant [29 x i8] c"Failed to allocate %d bytes\0A\00", align 1

; Function Attrs: inlinehint nounwind sspstrong uwtable
define internal ptr @pm_node_alloc(ptr noundef %0, i64 noundef %1) #7 {
  %3 = alloca ptr, align 8
  %4 = alloca i64, align 8
  %5 = alloca ptr, align 8
  store ptr %0, ptr %3, align 8, !tbaa !7
  store i64 %1, ptr %4, align 8, !tbaa !14
  call void @llvm.lifetime.start.p0(i64 8, ptr %5) #15
  %6 = load i64, ptr %4, align 8, !tbaa !14
  %7 = call noalias ptr @calloc(i64 noundef 1, i64 noundef %6) #18
  store ptr %7, ptr %5, align 8, !tbaa !57
  %8 = load ptr, ptr %5, align 8, !tbaa !57
  %9 = icmp eq ptr %8, null
  br i1 %9, label %10, label %15

10:                                               ; preds = %2
  %11 = load ptr, ptr @stderr, align 8, !tbaa !452
  %12 = load i64, ptr %4, align 8, !tbaa !14
  %13 = trunc i64 %12 to i32
  %14 = call i32 (ptr, i32, ptr, ...) @__fprintf_chk(ptr noundef %11, i32 noundef 1, ptr noundef @.str.94, i32 noundef %13)
  call void @abort() #19
  unreachable

15:                                               ; preds = %2
  %16 = load ptr, ptr %5, align 8, !tbaa !57
  call void @llvm.lifetime.end.p0(i64 8, ptr %5) #15
  ret ptr %16
}

; Function Attrs: nounwind sspstrong uwtable
define internal ptr @pm_symbol_node_create_unescaped(ptr noundef %0, ptr noundef %1, ptr noundef %2, ptr noundef %3, ptr noundef %4, i16 noundef zeroext %5) #0 {
  %7 = alloca ptr, align 8
  %8 = alloca ptr, align 8
  %9 = alloca ptr, align 8
  %10 = alloca ptr, align 8
  %11 = alloca ptr, align 8
  %12 = alloca i16, align 2
  %13 = alloca ptr, align 8
  %14 = alloca %struct.pm_symbol_node, align 8
  store ptr %0, ptr %7, align 8, !tbaa !7
  store ptr %1, ptr %8, align 8, !tbaa !57
  store ptr %2, ptr %9, align 8, !tbaa !57
  store ptr %3, ptr %10, align 8, !tbaa !57
  store ptr %4, ptr %11, align 8, !tbaa !57
  store i16 %5, ptr %12, align 2, !tbaa !59
  call void @llvm.lifetime.start.p0(i64 8, ptr %13) #15
  %15 = load ptr, ptr %7, align 8, !tbaa !7
  %16 = call ptr @pm_node_alloc(ptr noundef %15, i64 noundef 96)
  store ptr %16, ptr %13, align 8, !tbaa !412
  %17 = load ptr, ptr %13, align 8, !tbaa !412
  %18 = getelementptr inbounds nuw %struct.pm_symbol_node, ptr %14, i32 0, i32 0
  %19 = getelementptr inbounds nuw %struct.pm_node, ptr %18, i32 0, i32 0
  store i16 143, ptr %19, align 8, !tbaa !206
  %20 = getelementptr inbounds nuw %struct.pm_node, ptr %18, i32 0, i32 1
  %21 = load i16, ptr %12, align 2, !tbaa !59
  %22 = zext i16 %21 to i32
  %23 = or i32 2, %22
  %24 = trunc i32 %23 to i16
  store i16 %24, ptr %20, align 2, !tbaa !222
  %25 = getelementptr inbounds nuw %struct.pm_node, ptr %18, i32 0, i32 2
  %26 = load ptr, ptr %7, align 8, !tbaa !7
  %27 = getelementptr inbounds nuw %struct.pm_parser, ptr %26, i32 0, i32 0
  %28 = load i32, ptr %27, align 8, !tbaa !238
  %29 = add i32 %28, 1
  store i32 %29, ptr %27, align 8, !tbaa !238
  store i32 %29, ptr %25, align 4, !tbaa !239
  %30 = getelementptr inbounds nuw %struct.pm_node, ptr %18, i32 0, i32 3
  %31 = getelementptr inbounds nuw %struct.pm_location_t, ptr %30, i32 0, i32 0
  %32 = load ptr, ptr %8, align 8, !tbaa !57
  %33 = getelementptr inbounds nuw %struct.pm_token_t, ptr %32, i32 0, i32 0
  %34 = load i32, ptr %33, align 8, !tbaa !42
  %35 = icmp eq i32 %34, 3
  br i1 %35, label %36, label %40

36:                                               ; preds = %6
  %37 = load ptr, ptr %9, align 8, !tbaa !57
  %38 = getelementptr inbounds nuw %struct.pm_token_t, ptr %37, i32 0, i32 1
  %39 = load ptr, ptr %38, align 8, !tbaa !43
  br label %44

40:                                               ; preds = %6
  %41 = load ptr, ptr %8, align 8, !tbaa !57
  %42 = getelementptr inbounds nuw %struct.pm_token_t, ptr %41, i32 0, i32 1
  %43 = load ptr, ptr %42, align 8, !tbaa !43
  br label %44

44:                                               ; preds = %40, %36
  %45 = phi ptr [ %39, %36 ], [ %43, %40 ]
  store ptr %45, ptr %31, align 8, !tbaa !152
  %46 = getelementptr inbounds nuw %struct.pm_location_t, ptr %30, i32 0, i32 1
  %47 = load ptr, ptr %10, align 8, !tbaa !57
  %48 = getelementptr inbounds nuw %struct.pm_token_t, ptr %47, i32 0, i32 0
  %49 = load i32, ptr %48, align 8, !tbaa !42
  %50 = icmp eq i32 %49, 3
  br i1 %50, label %51, label %55

51:                                               ; preds = %44
  %52 = load ptr, ptr %9, align 8, !tbaa !57
  %53 = getelementptr inbounds nuw %struct.pm_token_t, ptr %52, i32 0, i32 2
  %54 = load ptr, ptr %53, align 8, !tbaa !44
  br label %59

55:                                               ; preds = %44
  %56 = load ptr, ptr %10, align 8, !tbaa !57
  %57 = getelementptr inbounds nuw %struct.pm_token_t, ptr %56, i32 0, i32 2
  %58 = load ptr, ptr %57, align 8, !tbaa !44
  br label %59

59:                                               ; preds = %55, %51
  %60 = phi ptr [ %54, %51 ], [ %58, %55 ]
  store ptr %60, ptr %46, align 8, !tbaa !153
  %61 = getelementptr inbounds nuw %struct.pm_symbol_node, ptr %14, i32 0, i32 1
  %62 = load ptr, ptr %8, align 8, !tbaa !57
  %63 = getelementptr inbounds nuw %struct.pm_token_t, ptr %62, i32 0, i32 0
  %64 = load i32, ptr %63, align 8, !tbaa !42
  %65 = icmp eq i32 %64, 3
  br i1 %65, label %66, label %69

66:                                               ; preds = %59
  %67 = getelementptr inbounds nuw %struct.pm_location_t, ptr %61, i32 0, i32 0
  store ptr null, ptr %67, align 8, !tbaa !152
  %68 = getelementptr inbounds nuw %struct.pm_location_t, ptr %61, i32 0, i32 1
  store ptr null, ptr %68, align 8, !tbaa !153
  br label %78

69:                                               ; preds = %59
  %70 = getelementptr inbounds nuw %struct.pm_location_t, ptr %61, i32 0, i32 0
  %71 = load ptr, ptr %8, align 8, !tbaa !57
  %72 = getelementptr inbounds nuw %struct.pm_token_t, ptr %71, i32 0, i32 1
  %73 = load ptr, ptr %72, align 8, !tbaa !43
  store ptr %73, ptr %70, align 8, !tbaa !152
  %74 = getelementptr inbounds nuw %struct.pm_location_t, ptr %61, i32 0, i32 1
  %75 = load ptr, ptr %8, align 8, !tbaa !57
  %76 = getelementptr inbounds nuw %struct.pm_token_t, ptr %75, i32 0, i32 2
  %77 = load ptr, ptr %76, align 8, !tbaa !44
  store ptr %77, ptr %74, align 8, !tbaa !153
  br label %78

78:                                               ; preds = %69, %66
  %79 = getelementptr inbounds nuw %struct.pm_symbol_node, ptr %14, i32 0, i32 2
  %80 = getelementptr inbounds nuw %struct.pm_location_t, ptr %79, i32 0, i32 0
  %81 = load ptr, ptr %9, align 8, !tbaa !57
  %82 = getelementptr inbounds nuw %struct.pm_token_t, ptr %81, i32 0, i32 1
  %83 = load ptr, ptr %82, align 8, !tbaa !43
  store ptr %83, ptr %80, align 8, !tbaa !152
  %84 = getelementptr inbounds nuw %struct.pm_location_t, ptr %79, i32 0, i32 1
  %85 = load ptr, ptr %9, align 8, !tbaa !57
  %86 = getelementptr inbounds nuw %struct.pm_token_t, ptr %85, i32 0, i32 2
  %87 = load ptr, ptr %86, align 8, !tbaa !44
  store ptr %87, ptr %84, align 8, !tbaa !153
  %88 = getelementptr inbounds nuw %struct.pm_symbol_node, ptr %14, i32 0, i32 3
  %89 = load ptr, ptr %10, align 8, !tbaa !57
  %90 = getelementptr inbounds nuw %struct.pm_token_t, ptr %89, i32 0, i32 0
  %91 = load i32, ptr %90, align 8, !tbaa !42
  %92 = icmp eq i32 %91, 3
  br i1 %92, label %93, label %96

93:                                               ; preds = %78
  %94 = getelementptr inbounds nuw %struct.pm_location_t, ptr %88, i32 0, i32 0
  store ptr null, ptr %94, align 8, !tbaa !152
  %95 = getelementptr inbounds nuw %struct.pm_location_t, ptr %88, i32 0, i32 1
  store ptr null, ptr %95, align 8, !tbaa !153
  br label %105

96:                                               ; preds = %78
  %97 = getelementptr inbounds nuw %struct.pm_location_t, ptr %88, i32 0, i32 0
  %98 = load ptr, ptr %10, align 8, !tbaa !57
  %99 = getelementptr inbounds nuw %struct.pm_token_t, ptr %98, i32 0, i32 1
  %100 = load ptr, ptr %99, align 8, !tbaa !43
  store ptr %100, ptr %97, align 8, !tbaa !152
  %101 = getelementptr inbounds nuw %struct.pm_location_t, ptr %88, i32 0, i32 1
  %102 = load ptr, ptr %10, align 8, !tbaa !57
  %103 = getelementptr inbounds nuw %struct.pm_token_t, ptr %102, i32 0, i32 2
  %104 = load ptr, ptr %103, align 8, !tbaa !44
  store ptr %104, ptr %101, align 8, !tbaa !153
  br label %105

105:                                              ; preds = %96, %93
  %106 = getelementptr inbounds nuw %struct.pm_symbol_node, ptr %14, i32 0, i32 4
  %107 = load ptr, ptr %11, align 8, !tbaa !57
  call void @llvm.memcpy.p0.p0.i64(ptr align 8 %106, ptr align 8 %107, i64 24, i1 false), !tbaa.struct !62
  call void @llvm.memcpy.p0.p0.i64(ptr align 8 %17, ptr align 8 %14, i64 96, i1 false), !tbaa.struct !545
  %108 = load ptr, ptr %13, align 8, !tbaa !412
  call void @llvm.lifetime.end.p0(i64 8, ptr %13) #15
  ret ptr %108
}

; Function Attrs: inlinehint nounwind sspstrong uwtable
define internal void @pm_node_flag_set(ptr noundef %0, i16 noundef zeroext %1) #7 {
  %3 = alloca ptr, align 8
  %4 = alloca i16, align 2
  store ptr %0, ptr %3, align 8, !tbaa !128
  store i16 %1, ptr %4, align 2, !tbaa !59
  %5 = load i16, ptr %4, align 2, !tbaa !59
  %6 = zext i16 %5 to i32
  %7 = load ptr, ptr %3, align 8, !tbaa !128
  %8 = getelementptr inbounds nuw %struct.pm_node, ptr %7, i32 0, i32 1
  %9 = load i16, ptr %8, align 2, !tbaa !222
  %10 = zext i16 %9 to i32
  %11 = or i32 %10, %6
  %12 = trunc i32 %11 to i16
  store i16 %12, ptr %8, align 2, !tbaa !222
  ret void
}

; Function Attrs: inlinehint nounwind sspstrong uwtable
define internal void @lex_state_set(ptr noundef %0, i32 noundef %1) #7 {
  %3 = alloca ptr, align 8
  %4 = alloca i32, align 4
  store ptr %0, ptr %3, align 8, !tbaa !7
  store i32 %1, ptr %4, align 4, !tbaa !52
  %5 = load i32, ptr %4, align 4, !tbaa !52
  %6 = load ptr, ptr %3, align 8, !tbaa !7
  %7 = getelementptr inbounds nuw %struct.pm_parser, ptr %6, i32 0, i32 1
  store i32 %5, ptr %7, align 4, !tbaa !18
  ret void
}

; Function Attrs: nounwind sspstrong uwtable
define internal ptr @parse_operator_symbol_name(ptr noundef %0) #0 {
  %2 = alloca ptr, align 8
  %3 = alloca ptr, align 8
  store ptr %0, ptr %3, align 8, !tbaa !57
  %4 = load ptr, ptr %3, align 8, !tbaa !57
  %5 = getelementptr inbounds nuw %struct.pm_token_t, ptr %4, i32 0, i32 0
  %6 = load i32, ptr %5, align 8, !tbaa !42
  switch i32 %6, label %21 [
    i32 153, label %7
    i32 11, label %7
  ]

7:                                                ; preds = %1, %1
  %8 = load ptr, ptr %3, align 8, !tbaa !57
  %9 = getelementptr inbounds nuw %struct.pm_token_t, ptr %8, i32 0, i32 2
  %10 = load ptr, ptr %9, align 8, !tbaa !44
  %11 = getelementptr i8, ptr %10, i64 -1
  %12 = load i8, ptr %11, align 1, !tbaa !39
  %13 = zext i8 %12 to i32
  %14 = icmp eq i32 %13, 64
  br i1 %14, label %15, label %20

15:                                               ; preds = %7
  %16 = load ptr, ptr %3, align 8, !tbaa !57
  %17 = getelementptr inbounds nuw %struct.pm_token_t, ptr %16, i32 0, i32 2
  %18 = load ptr, ptr %17, align 8, !tbaa !44
  %19 = getelementptr i8, ptr %18, i64 -1
  store ptr %19, ptr %2, align 8
  br label %25

20:                                               ; preds = %7
  br label %21

21:                                               ; preds = %1, %20
  %22 = load ptr, ptr %3, align 8, !tbaa !57
  %23 = getelementptr inbounds nuw %struct.pm_token_t, ptr %22, i32 0, i32 2
  %24 = load ptr, ptr %23, align 8, !tbaa !44
  store ptr %24, ptr %2, align 8
  br label %25

25:                                               ; preds = %21, %15
  %26 = load ptr, ptr %2, align 8
  ret ptr %26
}

; Function Attrs: inlinehint nounwind sspstrong uwtable
define internal ptr @pm_symbol_node_create(ptr noundef %0, ptr noundef %1, ptr noundef %2, ptr noundef %3) #7 {
  %5 = alloca ptr, align 8
  %6 = alloca ptr, align 8
  %7 = alloca ptr, align 8
  %8 = alloca ptr, align 8
  %9 = alloca %struct.pm_string_t, align 8
  store ptr %0, ptr %5, align 8, !tbaa !7
  store ptr %1, ptr %6, align 8, !tbaa !57
  store ptr %2, ptr %7, align 8, !tbaa !57
  store ptr %3, ptr %8, align 8, !tbaa !57
  %10 = load ptr, ptr %5, align 8, !tbaa !7
  %11 = load ptr, ptr %6, align 8, !tbaa !57
  %12 = load ptr, ptr %7, align 8, !tbaa !57
  %13 = load ptr, ptr %8, align 8, !tbaa !57
  call void @llvm.memset.p0.i64(ptr align 8 %9, i8 0, i64 24, i1 false)
  %14 = getelementptr inbounds nuw %struct.pm_string_t, ptr %9, i32 0, i32 2
  store i32 0, ptr %14, align 8, !tbaa !47
  %15 = call ptr @pm_symbol_node_create_unescaped(ptr noundef %10, ptr noundef %11, ptr noundef %12, ptr noundef %13, ptr noundef %9, i16 noundef zeroext 0)
  ret ptr %15
}

; Function Attrs: inlinehint nounwind sspstrong uwtable
define internal void @not_provided(ptr dead_on_unwind noalias writable sret(%struct.pm_token_t) align 8 %0, ptr noundef %1) #7 {
  %3 = alloca ptr, align 8
  store ptr %1, ptr %3, align 8, !tbaa !7
  %4 = getelementptr inbounds nuw %struct.pm_token_t, ptr %0, i32 0, i32 0
  store i32 3, ptr %4, align 8, !tbaa !42
  %5 = getelementptr i8, ptr %0, i64 4
  call void @llvm.memset.p0.i64(ptr align 4 %5, i8 0, i64 4, i1 false)
  %6 = getelementptr inbounds nuw %struct.pm_token_t, ptr %0, i32 0, i32 1
  %7 = load ptr, ptr %3, align 8, !tbaa !7
  %8 = getelementptr inbounds nuw %struct.pm_parser, ptr %7, i32 0, i32 8
  %9 = load ptr, ptr %8, align 8, !tbaa !40
  store ptr %9, ptr %6, align 8, !tbaa !43
  %10 = getelementptr inbounds nuw %struct.pm_token_t, ptr %0, i32 0, i32 2
  %11 = load ptr, ptr %3, align 8, !tbaa !7
  %12 = getelementptr inbounds nuw %struct.pm_parser, ptr %11, i32 0, i32 8
  %13 = load ptr, ptr %12, align 8, !tbaa !40
  store ptr %13, ptr %10, align 8, !tbaa !44
  ret void
}

; Function Attrs: nounwind sspstrong uwtable
define internal ptr @parse_operator_symbol(ptr noundef %0, ptr noundef %1, i32 noundef %2) #0 {
  %4 = alloca ptr, align 8
  %5 = alloca ptr, align 8
  %6 = alloca i32, align 4
  %7 = alloca %struct.pm_token_t, align 8
  %8 = alloca ptr, align 8
  %9 = alloca ptr, align 8
  store ptr %0, ptr %4, align 8, !tbaa !7
  store ptr %1, ptr %5, align 8, !tbaa !57
  store i32 %2, ptr %6, align 4, !tbaa !52
  call void @llvm.lifetime.start.p0(i64 24, ptr %7) #15
  %10 = load ptr, ptr %4, align 8, !tbaa !7
  call void @not_provided(ptr dead_on_unwind writable sret(%struct.pm_token_t) align 8 %7, ptr noundef %10)
  call void @llvm.lifetime.start.p0(i64 8, ptr %8) #15
  %11 = load ptr, ptr %4, align 8, !tbaa !7
  %12 = load ptr, ptr %5, align 8, !tbaa !57
  %13 = load ptr, ptr %4, align 8, !tbaa !7
  %14 = getelementptr inbounds nuw %struct.pm_parser, ptr %13, i32 0, i32 11
  %15 = call ptr @pm_symbol_node_create(ptr noundef %11, ptr noundef %12, ptr noundef %14, ptr noundef %7)
  store ptr %15, ptr %8, align 8, !tbaa !412
  call void @llvm.lifetime.start.p0(i64 8, ptr %9) #15
  %16 = load ptr, ptr %4, align 8, !tbaa !7
  %17 = getelementptr inbounds nuw %struct.pm_parser, ptr %16, i32 0, i32 11
  %18 = call ptr @parse_operator_symbol_name(ptr noundef %17)
  store ptr %18, ptr %9, align 8, !tbaa !12
  %19 = load i32, ptr %6, align 4, !tbaa !52
  %20 = icmp ne i32 %19, 0
  br i1 %20, label %21, label %24

21:                                               ; preds = %3
  %22 = load ptr, ptr %4, align 8, !tbaa !7
  %23 = load i32, ptr %6, align 4, !tbaa !52
  call void @lex_state_set(ptr noundef %22, i32 noundef %23)
  br label %24

24:                                               ; preds = %21, %3
  %25 = load ptr, ptr %4, align 8, !tbaa !7
  call void @parser_lex(ptr noundef %25)
  %26 = load ptr, ptr %8, align 8, !tbaa !412
  %27 = getelementptr inbounds nuw %struct.pm_symbol_node, ptr %26, i32 0, i32 4
  %28 = load ptr, ptr %4, align 8, !tbaa !7
  %29 = getelementptr inbounds nuw %struct.pm_parser, ptr %28, i32 0, i32 10
  %30 = getelementptr inbounds nuw %struct.pm_token_t, ptr %29, i32 0, i32 1
  %31 = load ptr, ptr %30, align 8, !tbaa !209
  %32 = load ptr, ptr %9, align 8, !tbaa !12
  call void @pm_string_shared_init(ptr noundef %27, ptr noundef %31, ptr noundef %32)
  %33 = load ptr, ptr %8, align 8, !tbaa !412
  call void @pm_node_flag_set(ptr noundef %33, i16 noundef zeroext 16)
  %34 = load ptr, ptr %8, align 8, !tbaa !412
  call void @llvm.lifetime.end.p0(i64 8, ptr %9) #15
  call void @llvm.lifetime.end.p0(i64 8, ptr %8) #15
  call void @llvm.lifetime.end.p0(i64 24, ptr %7) #15
  ret ptr %34
}