; Function Attrs: nounwind sspstrong uwtable
define internal fastcc nonnull ptr @parse_operator_symbol(ptr noundef %0, ptr noundef nonnull readonly captures(none) %1, i32 noundef range(i32 0, 4225) %2) unnamed_addr #1 {
  %4 = getelementptr inbounds nuw i8, ptr %0, i64 344
  %5 = tail call noalias dereferenceable_or_null(96) ptr @calloc(i64 noundef 1, i64 noundef 96) #34
  %6 = icmp eq ptr %5, null
  br i1 %6, label %7, label %pm_node_alloc.exit.i.i.cont

7:                                                ; preds = %3
  %8 = load ptr, ptr @stderr, align 8, !tbaa !105
  %9 = tail call i32 (ptr, i32, ptr, ...) @__fprintf_chk(ptr noundef %8, i32 noundef 1, ptr noundef nonnull @.str.94, i32 noundef 96) #31
  tail call void @abort() #35
  unreachable

pm_node_alloc.exit.i.i.cont:                      ; preds = %3
  %10 = load i32, ptr %0, align 8, !tbaa !107
  %11 = add i32 %10, 1
  store i32 %11, ptr %0, align 8, !tbaa !107
  %12 = load i32, ptr %1, align 8, !tbaa !124
  %13 = icmp eq i32 %12, 3
  %..i.i = select i1 %13, ptr %4, ptr %1
  %.in.i.i = getelementptr inbounds nuw i8, ptr %..i.i, i64 8
  %14 = load ptr, ptr %.in.i.i, align 8, !tbaa !125
  %.sroa.gep = getelementptr inbounds nuw i8, ptr %0, i64 360
  %.then.val = load ptr, ptr %.sroa.gep, align 8, !tbaa !126
  br i1 %13, label %pm_symbol_node_create.exit, label %15

15:                                               ; preds = %pm_node_alloc.exit.i.i.cont
  %16 = getelementptr inbounds nuw i8, ptr %1, i64 8
  %17 = load ptr, ptr %16, align 8, !tbaa !125
  %18 = getelementptr inbounds nuw i8, ptr %1, i64 16
  %19 = load ptr, ptr %18, align 8, !tbaa !126
  br label %pm_symbol_node_create.exit

pm_symbol_node_create.exit:                       ; preds = %pm_node_alloc.exit.i.i.cont, %15
  %.sroa.6.0.i.i = phi ptr [ %17, %15 ], [ null, %pm_node_alloc.exit.i.i.cont ]
  %.sroa.8.0.i.i = phi ptr [ %19, %15 ], [ null, %pm_node_alloc.exit.i.i.cont ]
  %20 = getelementptr inbounds nuw i8, ptr %0, i64 352
  %21 = load ptr, ptr %20, align 8, !tbaa !125
  store i16 143, ptr %5, align 8, !tbaa !108
  %.sroa.2.0..sroa_idx.i.i = getelementptr inbounds nuw i8, ptr %5, i64 2
  store i16 2, ptr %.sroa.2.0..sroa_idx.i.i, align 2, !tbaa !108
  %.sroa.3.0..sroa_idx.i.i = getelementptr inbounds nuw i8, ptr %5, i64 4
  store i32 %11, ptr %.sroa.3.0..sroa_idx.i.i, align 4, !tbaa !7
  %.sroa.4.0..sroa_idx.i.i = getelementptr inbounds nuw i8, ptr %5, i64 8
  store ptr %14, ptr %.sroa.4.0..sroa_idx.i.i, align 8, !tbaa !14
  %.sroa.5.0..sroa_idx.i.i = getelementptr inbounds nuw i8, ptr %5, i64 16
  store ptr %.then.val, ptr %.sroa.5.0..sroa_idx.i.i, align 8, !tbaa !14
  %.sroa.6.0..sroa_idx.i.i = getelementptr inbounds nuw i8, ptr %5, i64 24
  store ptr %.sroa.6.0.i.i, ptr %.sroa.6.0..sroa_idx.i.i, align 8, !tbaa !14
  %.sroa.8.0..sroa_idx.i.i = getelementptr inbounds nuw i8, ptr %5, i64 32
  store ptr %.sroa.8.0.i.i, ptr %.sroa.8.0..sroa_idx.i.i, align 8, !tbaa !14
  %.sroa.10.0..sroa_idx.i.i = getelementptr inbounds nuw i8, ptr %5, i64 40
  store ptr %21, ptr %.sroa.10.0..sroa_idx.i.i, align 8, !tbaa !14
  %.sroa.11.0..sroa_idx.i.i = getelementptr inbounds nuw i8, ptr %5, i64 48
  store ptr %.then.val, ptr %.sroa.11.0..sroa_idx.i.i, align 8, !tbaa !14
  %22 = load i32, ptr %4, align 8, !tbaa !124
  switch i32 %22, label %parse_operator_symbol_name.exit [
    i32 153, label %23
    i32 11, label %23
  ]

23:                                               ; preds = %pm_symbol_node_create.exit, %pm_symbol_node_create.exit
  %24 = getelementptr i8, ptr %.then.val, i64 -1
  %25 = load i8, ptr %24, align 1, !tbaa !65
  %26 = icmp eq i8 %25, 64
  %spec.select.i = select i1 %26, ptr %24, ptr %.then.val
  br label %parse_operator_symbol_name.exit

parse_operator_symbol_name.exit:                  ; preds = %pm_symbol_node_create.exit, %23
  %.0.i = phi ptr [ %spec.select.i, %23 ], [ %.then.val, %pm_symbol_node_create.exit ]
  %.not = icmp eq i32 %2, 0
  br i1 %.not, label %29, label %27

27:                                               ; preds = %parse_operator_symbol_name.exit
  %28 = getelementptr inbounds nuw i8, ptr %0, i64 4
  store i32 %2, ptr %28, align 4, !tbaa !193
  br label %29

29:                                               ; preds = %27, %parse_operator_symbol_name.exit
  tail call fastcc void @parser_lex(ptr noundef nonnull %0)
  %30 = getelementptr inbounds nuw i8, ptr %5, i64 72
  %31 = getelementptr inbounds nuw i8, ptr %0, i64 328
  %32 = load ptr, ptr %31, align 8, !tbaa !241
  tail call void @pm_string_shared_init(ptr noundef nonnull %30, ptr noundef %32, ptr noundef %.0.i) #31
  %33 = load i16, ptr %.sroa.2.0..sroa_idx.i.i, align 2, !tbaa !114
  %34 = or i16 %33, 16
  store i16 %34, ptr %.sroa.2.0..sroa_idx.i.i, align 2, !tbaa !114
  ret ptr %5
}